target datalayout = "e-m:e-p270:32:32-p271:32:32-p272:64:64-i64:64-i128:128-f80:128-n8:16:32:64-S128"
target triple = "x86_64-pc-linux-gnu"

; Function Attrs: inlinehint mustprogress nounwind uwtable
define linkonce_odr void @_ZSt4swapIhENSt9enable_ifIXsr6__and_ISt6__not_ISt15__is_tuple_likeIT_EESt21is_move_constructibleIS3_ESt18is_move_assignableIS3_EEE5valueEvE4typeERS3_SC_(ptr noundef nonnull align 1 dereferenceable(1) %0, ptr noundef nonnull align 1 dereferenceable(1) %1) #7 comdat {
  %3 = alloca ptr, align 8
  %4 = alloca ptr, align 8
  %5 = alloca i8, align 1
  store ptr %0, ptr %3, align 8
  store ptr %1, ptr %4, align 8
  call void @llvm.lifetime.start.p0(i64 1, ptr %5) #18
  %6 = load ptr, ptr %3, align 8
  %7 = load i8, ptr %6, align 1
  store i8 %7, ptr %5, align 1
  %8 = load ptr, ptr %4, align 8
  %9 = load i8, ptr %8, align 1
  %10 = load ptr, ptr %3, align 8
  store i8 %9, ptr %10, align 1
  %11 = load i8, ptr %5, align 1
  %12 = load ptr, ptr %4, align 8
  store i8 %11, ptr %12, align 1
  call void @llvm.lifetime.end.p0(i64 1, ptr %5) #18
  ret void
}

; Function Attrs: inlinehint mustprogress nounwind uwtable
define linkonce_odr hidden noundef i32 @_ZN6Assimp11LWOImporter17ReadVSizedIntLWO2ERPh(ptr noundef nonnull align 8 dereferenceable(233) %0, ptr noundef nonnull align 8 dereferenceable(8) %1) #7 comdat align 2 {
  %3 = alloca ptr, align 8
  %4 = alloca ptr, align 8
  %5 = alloca i32, align 4
  %6 = alloca i32, align 4
  store ptr %0, ptr %3, align 8
  store ptr %1, ptr %4, align 8
  call void @llvm.lifetime.start.p0(i64 4, ptr %5) #18
  call void @llvm.lifetime.start.p0(i64 4, ptr %6) #18
  %7 = load ptr, ptr %4, align 8
  %8 = load ptr, ptr %7, align 8
  %9 = load i8, ptr %8, align 1
  %10 = zext i8 %9 to i32
  store i32 %10, ptr %6, align 4
  %11 = load ptr, ptr %4, align 8
  %12 = load ptr, ptr %11, align 8
  %13 = getelementptr inbounds nuw i8, ptr %12, i32 1
  store ptr %13, ptr %11, align 8
  %14 = load i32, ptr %6, align 4
  %15 = icmp ne i32 %14, 255
  br i1 %15, label %16, label %29

16:                                               ; preds = %2
  %17 = load i32, ptr %6, align 4
  %18 = shl i32 %17, 8
  store i32 %18, ptr %5, align 4
  %19 = load ptr, ptr %4, align 8
  %20 = load ptr, ptr %19, align 8
  %21 = load i8, ptr %20, align 1
  %22 = zext i8 %21 to i32
  store i32 %22, ptr %6, align 4
  %23 = load ptr, ptr %4, align 8
  %24 = load ptr, ptr %23, align 8
  %25 = getelementptr inbounds nuw i8, ptr %24, i32 1
  store ptr %25, ptr %23, align 8
  %26 = load i32, ptr %6, align 4
  %27 = load i32, ptr %5, align 4
  %28 = or i32 %27, %26
  store i32 %28, ptr %5, align 4
  br label %60

29:                                               ; preds = %2
  %30 = load ptr, ptr %4, align 8
  %31 = load ptr, ptr %30, align 8
  %32 = load i8, ptr %31, align 1
  %33 = zext i8 %32 to i32
  store i32 %33, ptr %6, align 4
  %34 = load ptr, ptr %4, align 8
  %35 = load ptr, ptr %34, align 8
  %36 = getelementptr inbounds nuw i8, ptr %35, i32 1
  store ptr %36, ptr %34, align 8
  %37 = load i32, ptr %6, align 4
  %38 = shl i32 %37, 16
  store i32 %38, ptr %5, align 4
  %39 = load ptr, ptr %4, align 8
  %40 = load ptr, ptr %39, align 8
  %41 = load i8, ptr %40, align 1
  %42 = zext i8 %41 to i32
  store i32 %42, ptr %6, align 4
  %43 = load ptr, ptr %4, align 8
  %44 = load ptr, ptr %43, align 8
  %45 = getelementptr inbounds nuw i8, ptr %44, i32 1
  store ptr %45, ptr %43, align 8
  %46 = load i32, ptr %6, align 4
  %47 = shl i32 %46, 8
  %48 = load i32, ptr %5, align 4
  %49 = or i32 %48, %47
  store i32 %49, ptr %5, align 4
  %50 = load ptr, ptr %4, align 8
  %51 = load ptr, ptr %50, align 8
  %52 = load i8, ptr %51, align 1
  %53 = zext i8 %52 to i32
  store i32 %53, ptr %6, align 4
  %54 = load ptr, ptr %4, align 8
  %55 = load ptr, ptr %54, align 8
  %56 = getelementptr inbounds nuw i8, ptr %55, i32 1
  store ptr %56, ptr %54, align 8
  %57 = load i32, ptr %6, align 4
  %58 = load i32, ptr %5, align 4
  %59 = or i32 %58, %57
  store i32 %59, ptr %5, align 4
  br label %60

60:                                               ; preds = %29, %16
  %61 = load i32, ptr %5, align 4
  call void @llvm.lifetime.end.p0(i64 4, ptr %6) #18
  call void @llvm.lifetime.end.p0(i64 4, ptr %5) #18
  ret i32 %61
}

; Function Attrs: inlinehint mustprogress nounwind uwtable
define linkonce_odr hidden void @_ZN6Assimp8ByteSwap5Swap2EPv(ptr noundef %0) #7 comdat align 2 {
  %2 = alloca ptr, align 8
  %3 = alloca ptr, align 8
  store ptr %0, ptr %2, align 8
  call void @llvm.lifetime.start.p0(i64 8, ptr %3) #18
  %4 = load ptr, ptr %2, align 8
  store ptr %4, ptr %3, align 8
  %5 = load ptr, ptr %3, align 8
  %6 = getelementptr inbounds i8, ptr %5, i64 0
  %7 = load ptr, ptr %3, align 8
  %8 = getelementptr inbounds i8, ptr %7, i64 1
  call void @_ZSt4swapIhENSt9enable_ifIXsr6__and_ISt6__not_ISt15__is_tuple_likeIT_EESt21is_move_constructibleIS3_ESt18is_move_assignableIS3_EEE5valueEvE4typeERS3_SC_(ptr noundef nonnull align 1 dereferenceable(1) %6, ptr noundef nonnull align 1 dereferenceable(1) %8) #18
  call void @llvm.lifetime.end.p0(i64 8, ptr %3) #18
  ret void
}

; Function Attrs: mustprogress uwtable
define hidden void @_ZN6Assimp11LWOImporter22CountVertsAndFacesLWO2ERjS1_RPtPKtj(ptr noundef nonnull align 8 dereferenceable(233) %0, ptr noundef nonnull align 4 dereferenceable(4) %1, ptr noundef nonnull align 4 dereferenceable(4) %2, ptr noundef nonnull align 8 dereferenceable(8) %3, ptr noundef %4, i32 noundef %5) #3 align 2 {
  %7 = alloca ptr, align 8
  %8 = alloca ptr, align 8
  %9 = alloca ptr, align 8
  %10 = alloca ptr, align 8
  %11 = alloca ptr, align 8
  %12 = alloca i32, align 4
  %13 = alloca i16, align 2
  %14 = alloca i16, align 2
  store ptr %0, ptr %7, align 8
  store ptr %1, ptr %8, align 8
  store ptr %2, ptr %9, align 8
  store ptr %3, ptr %10, align 8
  store ptr %4, ptr %11, align 8
  store i32 %5, ptr %12, align 4
  %15 = load ptr, ptr %7, align 8
  br label %16

16:                                               ; preds = %56, %6
  %17 = load ptr, ptr %10, align 8
  %18 = load ptr, ptr %17, align 8
  %19 = load ptr, ptr %11, align 8
  %20 = icmp ult ptr %18, %19
  br i1 %20, label %21, label %25

21:                                               ; preds = %16
  %22 = load i32, ptr %12, align 4
  %23 = add i32 %22, -1
  store i32 %23, ptr %12, align 4
  %24 = icmp ne i32 %22, 0
  br label %25

25:                                               ; preds = %21, %16
  %26 = phi i1 [ false, %16 ], [ %24, %21 ]
  br i1 %26, label %27, label %57

27:                                               ; preds = %25
  call void @llvm.lifetime.start.p0(i64 2, ptr %13) #18
  %28 = load ptr, ptr %10, align 8
  %29 = load ptr, ptr %28, align 8
  %30 = getelementptr inbounds nuw i16, ptr %29, i32 1
  store ptr %30, ptr %28, align 8
  call void @llvm.memcpy.p0.p0.i64(ptr align 2 %13, ptr align 2 %29, i64 2, i1 false)
  call void @_ZN6Assimp8ByteSwap5Swap2EPv(ptr noundef %13)
  %31 = load i16, ptr %13, align 2
  %32 = zext i16 %31 to i32
  %33 = and i32 %32, 1023
  %34 = trunc i32 %33 to i16
  store i16 %34, ptr %13, align 2
  %35 = load i16, ptr %13, align 2
  %36 = zext i16 %35 to i32
  %37 = load ptr, ptr %8, align 8
  %38 = load i32, ptr %37, align 4
  %39 = add i32 %38, %36
  store i32 %39, ptr %37, align 4
  %40 = load ptr, ptr %9, align 8
  %41 = load i32, ptr %40, align 4
  %42 = add i32 %41, 1
  store i32 %42, ptr %40, align 4
  call void @llvm.lifetime.start.p0(i64 2, ptr %14) #18
  store i16 0, ptr %14, align 2
  br label %43

43:                                               ; preds = %53, %27
  %44 = load i16, ptr %14, align 2
  %45 = zext i16 %44 to i32
  %46 = load i16, ptr %13, align 2
  %47 = zext i16 %46 to i32
  %48 = icmp slt i32 %45, %47
  br i1 %48, label %50, label %49

49:                                               ; preds = %43
  call void @llvm.lifetime.end.p0(i64 2, ptr %14) #18
  br label %56

50:                                               ; preds = %43
  %51 = load ptr, ptr %10, align 8
  %52 = call noundef i32 @_ZN6Assimp11LWOImporter17ReadVSizedIntLWO2ERPh(ptr noundef nonnull align 8 dereferenceable(233) %15, ptr noundef nonnull align 8 dereferenceable(8) %51)
  br label %53

53:                                               ; preds = %50
  %54 = load i16, ptr %14, align 2
  %55 = add i16 %54, 1
  store i16 %55, ptr %14, align 2
  br label %43, !llvm.loop !41

56:                                               ; preds = %49
  call void @llvm.lifetime.end.p0(i64 2, ptr %13) #18
  br label %16, !llvm.loop !42

57:                                               ; preds = %25
  ret void
}