; Function Attrs: mustprogress nofree norecurse nosync nounwind memory(read, argmem: readwrite, inaccessiblemem: none) uwtable
define hidden void @_ZN6Assimp11LWOImporter22CountVertsAndFacesLWO2ERjS1_RPtPKtj(ptr noundef nonnull readnone align 8 captures(none) dereferenceable(233) %0, ptr noundef nonnull align 4 captures(none) dereferenceable(4) %1, ptr noundef nonnull align 4 captures(none) dereferenceable(4) %2, ptr noundef nonnull align 8 captures(none) dereferenceable(8) %3, ptr noundef readnone captures(address) %4, i32 noundef %5) local_unnamed_addr #13 align 2 {
  %7 = load ptr, ptr %3, align 8
  %8 = icmp ult ptr %7, %4
  br i1 %8, label %.lr.ph25, label %.critedge

.loopexit:                                        ; preds = %.lr.ph, %13
  %9 = phi ptr [ %.promoted, %13 ], [ %25, %.lr.ph ]
  %10 = icmp ult ptr %9, %4
  br i1 %10, label %.lr.ph25, label %.critedge, !llvm.loop !70

.lr.ph25:                                         ; preds = %6, %.loopexit
  %11 = phi ptr [ %9, %.loopexit ], [ %7, %6 ]
  %.0924 = phi i32 [ %12, %.loopexit ], [ %5, %6 ]
  %12 = add i32 %.0924, -1
  %.not = icmp eq i32 %.0924, 0
  br i1 %.not, label %.critedge, label %13

13:                                               ; preds = %.lr.ph25
  %14 = getelementptr inbounds nuw i8, ptr %11, i64 2
  store ptr %14, ptr %3, align 8
  %15 = load i16, ptr %11, align 2
  %16 = and i16 %15, -253
  %17 = tail call i16 @llvm.bswap.i16(i16 %16)
  %18 = zext nneg i16 %17 to i32
  %19 = load i32, ptr %1, align 4
  %20 = add i32 %19, %18
  store i32 %20, ptr %1, align 4
  %21 = load i32, ptr %2, align 4
  %22 = add i32 %21, 1
  store i32 %22, ptr %2, align 4
  %.promoted = load ptr, ptr %3, align 8
  %.not27 = icmp eq i16 %16, 0
  br i1 %.not27, label %.loopexit, label %.lr.ph.preheader

.lr.ph.preheader:                                 ; preds = %13
  %umax = tail call i16 @llvm.umax.i16(i16 %17, i16 1)
  br label %.lr.ph

.lr.ph:                                           ; preds = %.lr.ph.preheader, %.lr.ph
  %.023 = phi i16 [ %26, %.lr.ph ], [ 0, %.lr.ph.preheader ]
  %23 = phi ptr [ %25, %.lr.ph ], [ %.promoted, %.lr.ph.preheader ]
  %24 = load i8, ptr %23, align 1
  %.not.i = icmp eq i8 %24, -1
  %spec.select = select i1 %.not.i, i64 4, i64 2
  %25 = getelementptr inbounds nuw i8, ptr %23, i64 %spec.select
  store ptr %25, ptr %3, align 8
  %26 = add nuw nsw i16 %.023, 1
  %exitcond.not = icmp eq i16 %26, %umax
  br i1 %exitcond.not, label %.loopexit, label %.lr.ph, !llvm.loop !71

.critedge:                                        ; preds = %.lr.ph25, %.loopexit, %6
  ret void
}